; Function Attrs: mustprogress nounwind uwtable
define void @_ZN4LIEF2PE10RichHeaderD2Ev(ptr noundef nonnull align 8 dereferenceable(40) %0) unnamed_addr #1 align 2 personality ptr @__gxx_personality_v0 {
  store ptr getelementptr inbounds ({ [7 x ptr] }, ptr @_ZTVN4LIEF2PE10RichHeaderE, i64 0, i32 0, i64 2), ptr %0, align 8
  %2 = getelementptr inbounds i8, ptr %0, i64 16
  %3 = load ptr, ptr %2, align 8
  %4 = getelementptr inbounds i8, ptr %0, i64 24
  %5 = load ptr, ptr %4, align 8
  %.not4.i.i.i.i = icmp eq ptr %3, %5
  br i1 %.not4.i.i.i.i, label %_ZSt8_DestroyIPN4LIEF2PE9RichEntryES2_EvT_S4_RSaIT0_E.exit.i, label %.lr.ph.i.i.i.i

.lr.ph.i.i.i.i:                                   ; preds = %1, %.lr.ph.i.i.i.i
  %.05.i.i.i.i = phi ptr [ %9, %.lr.ph.i.i.i.i ], [ %3, %1 ]
  %6 = load ptr, ptr %.05.i.i.i.i, align 8
  %7 = getelementptr inbounds i8, ptr %6, i64 16
  %8 = load ptr, ptr %7, align 8
  tail call void %8(ptr noundef nonnull align 8 dereferenceable(16) %.05.i.i.i.i) #19
  %9 = getelementptr inbounds i8, ptr %.05.i.i.i.i, i64 16
  %.not.i.i.i.i = icmp eq ptr %9, %5
  br i1 %.not.i.i.i.i, label %_ZSt8_DestroyIPN4LIEF2PE9RichEntryES2_EvT_S4_RSaIT0_E.exitthread-pre-split.i, label %.lr.ph.i.i.i.i, !llvm.loop !4

_ZSt8_DestroyIPN4LIEF2PE9RichEntryES2_EvT_S4_RSaIT0_E.exitthread-pre-split.i: ; preds = %.lr.ph.i.i.i.i
  %.pr.i = load ptr, ptr %2, align 8
  br label %_ZSt8_DestroyIPN4LIEF2PE9RichEntryES2_EvT_S4_RSaIT0_E.exit.i

_ZSt8_DestroyIPN4LIEF2PE9RichEntryES2_EvT_S4_RSaIT0_E.exit.i: ; preds = %_ZSt8_DestroyIPN4LIEF2PE9RichEntryES2_EvT_S4_RSaIT0_E.exitthread-pre-split.i, %1
  %10 = phi ptr [ %.pr.i, %_ZSt8_DestroyIPN4LIEF2PE9RichEntryES2_EvT_S4_RSaIT0_E.exitthread-pre-split.i ], [ %3, %1 ]
  %.not.i.i.i = icmp eq ptr %10, null
  br i1 %.not.i.i.i, label %_ZNSt6vectorIN4LIEF2PE9RichEntryESaIS2_EED2Ev.exit, label %11

11:                                               ; preds = %_ZSt8_DestroyIPN4LIEF2PE9RichEntryES2_EvT_S4_RSaIT0_E.exit.i
  tail call void @_ZdlPv(ptr noundef nonnull %10) #20
  br label %_ZNSt6vectorIN4LIEF2PE9RichEntryESaIS2_EED2Ev.exit

_ZNSt6vectorIN4LIEF2PE9RichEntryESaIS2_EED2Ev.exit: ; preds = %_ZSt8_DestroyIPN4LIEF2PE9RichEntryES2_EvT_S4_RSaIT0_E.exit.i, %11
  tail call void @_ZN4LIEF6ObjectD2Ev(ptr noundef nonnull align 8 dereferenceable(8) %0) #19
  ret void
}